target datalayout = "e-m:e-p270:32:32-p271:32:32-p272:64:64-i64:64-i128:128-f80:128-n8:16:32:64-S128"
target triple = "x86_64-pc-linux-gnu"

%struct.If_Obj_t_ = type { i32, i32, i32, i32, i32, i32, ptr, ptr, ptr, float, float, float, %union.anon, ptr, %struct.If_Cut_t_ }
%union.anon = type { ptr }
%struct.If_Cut_t_ = type <{ float, float, float, float, i32, i32, i32, i48, [0 x i32] }>

@.str = private unnamed_addr constant [16 x i8] c"Object is NULL.\00", align 1
@.str.1 = private unnamed_addr constant [11 x i8] c"Obj %4d : \00", align 1
@.str.2 = private unnamed_addr constant [11 x i8] c"constant 1\00", align 1
@.str.3 = private unnamed_addr constant [3 x i8] c"PI\00", align 1
@.str.4 = private unnamed_addr constant [12 x i8] c"PO( %4d%s )\00", align 1
@.str.5 = private unnamed_addr constant [2 x i8] c"'\00", align 1
@.str.6 = private unnamed_addr constant [2 x i8] c" \00", align 1
@.str.7 = private unnamed_addr constant [20 x i8] c"AND( %4d%s, %4d%s )\00", align 1
@.str.8 = private unnamed_addr constant [14 x i8] c" (refs = %3d)\00", align 1
@.str.9 = private unnamed_addr constant [2 x i8] c"\0A\00", align 1

; Function Attrs: nounwind uwtable
define internal i32 @If_ObjFaninC1(ptr noundef %0) #0 {
  %2 = alloca ptr, align 8
  store ptr %0, ptr %2, align 8
  %3 = load ptr, ptr %2, align 8
  %4 = load i32, ptr %3, align 8
  %5 = lshr i32 %4, 5
  %6 = and i32 %5, 1
  ret i32 %6
}

; Function Attrs: nounwind uwtable
define internal ptr @If_ObjFanin1(ptr noundef %0) #0 {
  %2 = alloca ptr, align 8
  store ptr %0, ptr %2, align 8
  %3 = load ptr, ptr %2, align 8
  %4 = getelementptr inbounds %struct.If_Obj_t_, ptr %3, i32 0, i32 7
  %5 = load ptr, ptr %4, align 8
  ret ptr %5
}

; Function Attrs: nounwind uwtable
define internal i32 @If_ObjFaninC0(ptr noundef %0) #0 {
  %2 = alloca ptr, align 8
  store ptr %0, ptr %2, align 8
  %3 = load ptr, ptr %2, align 8
  %4 = load i32, ptr %3, align 8
  %5 = lshr i32 %4, 4
  %6 = and i32 %5, 1
  ret i32 %6
}

; Function Attrs: nounwind uwtable
define internal ptr @If_ObjFanin0(ptr noundef %0) #0 {
  %2 = alloca ptr, align 8
  store ptr %0, ptr %2, align 8
  %3 = load ptr, ptr %2, align 8
  %4 = getelementptr inbounds %struct.If_Obj_t_, ptr %3, i32 0, i32 6
  %5 = load ptr, ptr %4, align 8
  ret ptr %5
}

; Function Attrs: nounwind uwtable
define internal i32 @If_ObjIsCo(ptr noundef %0) #0 {
  %2 = alloca ptr, align 8
  store ptr %0, ptr %2, align 8
  %3 = load ptr, ptr %2, align 8
  %4 = load i32, ptr %3, align 8
  %5 = and i32 %4, 15
  %6 = icmp eq i32 %5, 3
  %7 = zext i1 %6 to i32
  ret i32 %7
}

; Function Attrs: nounwind uwtable
define internal i32 @If_ObjIsCi(ptr noundef %0) #0 {
  %2 = alloca ptr, align 8
  store ptr %0, ptr %2, align 8
  %3 = load ptr, ptr %2, align 8
  %4 = load i32, ptr %3, align 8
  %5 = and i32 %4, 15
  %6 = icmp eq i32 %5, 2
  %7 = zext i1 %6 to i32
  ret i32 %7
}

; Function Attrs: nounwind uwtable
define internal i32 @If_ObjIsConst1(ptr noundef %0) #0 {
  %2 = alloca ptr, align 8
  store ptr %0, ptr %2, align 8
  %3 = load ptr, ptr %2, align 8
  %4 = load i32, ptr %3, align 8
  %5 = and i32 %4, 15
  %6 = icmp eq i32 %5, 1
  %7 = zext i1 %6 to i32
  ret i32 %7
}

; Function Attrs: nounwind uwtable
define internal i32 @If_ObjId(ptr noundef %0) #0 {
  %2 = alloca ptr, align 8
  store ptr %0, ptr %2, align 8
  %3 = load ptr, ptr %2, align 8
  %4 = getelementptr inbounds %struct.If_Obj_t_, ptr %3, i32 0, i32 1
  %5 = load i32, ptr %4, align 4
  ret i32 %5
}

; Function Attrs: nounwind uwtable
define void @If_ObjPrint(ptr noundef %0) #0 {
  %2 = alloca ptr, align 8
  store ptr %0, ptr %2, align 8
  %3 = load ptr, ptr %2, align 8
  %4 = icmp eq ptr %3, null
  br i1 %4, label %5, label %7

5:                                                ; preds = %1
  %6 = call i32 (ptr, ...) @printf(ptr noundef @.str)
  br label %59

7:                                                ; preds = %1
  %8 = load ptr, ptr %2, align 8
  %9 = call i32 @If_ObjId(ptr noundef %8)
  %10 = call i32 (ptr, ...) @printf(ptr noundef @.str.1, i32 noundef %9)
  %11 = load ptr, ptr %2, align 8
  %12 = call i32 @If_ObjIsConst1(ptr noundef %11)
  %13 = icmp ne i32 %12, 0
  br i1 %13, label %14, label %16

14:                                               ; preds = %7
  %15 = call i32 (ptr, ...) @printf(ptr noundef @.str.2)
  br label %53

16:                                               ; preds = %7
  %17 = load ptr, ptr %2, align 8
  %18 = call i32 @If_ObjIsCi(ptr noundef %17)
  %19 = icmp ne i32 %18, 0
  br i1 %19, label %20, label %22

20:                                               ; preds = %16
  %21 = call i32 (ptr, ...) @printf(ptr noundef @.str.3)
  br label %52

22:                                               ; preds = %16
  %23 = load ptr, ptr %2, align 8
  %24 = call i32 @If_ObjIsCo(ptr noundef %23)
  %25 = icmp ne i32 %24, 0
  br i1 %25, label %26, label %35

26:                                               ; preds = %22
  %27 = load ptr, ptr %2, align 8
  %28 = call ptr @If_ObjFanin0(ptr noundef %27)
  %29 = call i32 @If_ObjId(ptr noundef %28)
  %30 = load ptr, ptr %2, align 8
  %31 = call i32 @If_ObjFaninC0(ptr noundef %30)
  %32 = icmp ne i32 %31, 0
  %33 = select i1 %32, ptr @.str.5, ptr @.str.6
  %34 = call i32 (ptr, ...) @printf(ptr noundef @.str.4, i32 noundef %29, ptr noundef %33)
  br label %51

35:                                               ; preds = %22
  %36 = load ptr, ptr %2, align 8
  %37 = call ptr @If_ObjFanin0(ptr noundef %36)
  %38 = call i32 @If_ObjId(ptr noundef %37)
  %39 = load ptr, ptr %2, align 8
  %40 = call i32 @If_ObjFaninC0(ptr noundef %39)
  %41 = icmp ne i32 %40, 0
  %42 = select i1 %41, ptr @.str.5, ptr @.str.6
  %43 = load ptr, ptr %2, align 8
  %44 = call ptr @If_ObjFanin1(ptr noundef %43)
  %45 = call i32 @If_ObjId(ptr noundef %44)
  %46 = load ptr, ptr %2, align 8
  %47 = call i32 @If_ObjFaninC1(ptr noundef %46)
  %48 = icmp ne i32 %47, 0
  %49 = select i1 %48, ptr @.str.5, ptr @.str.6
  %50 = call i32 (ptr, ...) @printf(ptr noundef @.str.7, i32 noundef %38, ptr noundef %42, i32 noundef %45, ptr noundef %49)
  br label %51

51:                                               ; preds = %35, %26
  br label %52

52:                                               ; preds = %51, %20
  br label %53

53:                                               ; preds = %52, %14
  %54 = load ptr, ptr %2, align 8
  %55 = getelementptr inbounds %struct.If_Obj_t_, ptr %54, i32 0, i32 5
  %56 = load i32, ptr %55, align 4
  %57 = call i32 (ptr, ...) @printf(ptr noundef @.str.8, i32 noundef %56)
  %58 = call i32 (ptr, ...) @printf(ptr noundef @.str.9)
  br label %59

59:                                               ; preds = %53, %5
  ret void
}