; Function Attrs: nofree nounwind uwtable
define void @If_ObjPrint(ptr noundef readonly %0) local_unnamed_addr #5 {
  %2 = icmp eq ptr %0, null
  br i1 %2, label %3, label %5

3:                                                ; preds = %1
  %4 = tail call i32 (ptr, ...) @printf(ptr noundef nonnull dereferenceable(1) @.str)
  br label %33

5:                                                ; preds = %1
  %6 = getelementptr i8, ptr %0, i64 4
  %.val24 = load i32, ptr %6, align 4
  %7 = tail call i32 (ptr, ...) @printf(ptr noundef nonnull dereferenceable(1) @.str.1, i32 noundef %.val24)
  %.val21 = load i32, ptr %0, align 8
  %8 = and i32 %.val21, 15
  switch i32 %8, label %19 [
    i32 1, label %9
    i32 2, label %11
    i32 3, label %13
  ]

9:                                                ; preds = %5
  %10 = tail call i32 (ptr, ...) @printf(ptr noundef nonnull dereferenceable(1) @.str.2)
  br label %29

11:                                               ; preds = %5
  %12 = tail call i32 (ptr, ...) @printf(ptr noundef nonnull dereferenceable(1) @.str.3)
  br label %29

13:                                               ; preds = %5
  %14 = getelementptr i8, ptr %0, i64 24
  %.val18 = load ptr, ptr %14, align 8
  %15 = getelementptr i8, ptr %.val18, i64 4
  %.val25 = load i32, ptr %15, align 4
  %16 = and i32 %.val21, 16
  %.not16 = icmp eq i32 %16, 0
  %17 = select i1 %.not16, ptr @.str.6, ptr @.str.5
  %18 = tail call i32 (ptr, ...) @printf(ptr noundef nonnull dereferenceable(1) @.str.4, i32 noundef %.val25, ptr noundef nonnull %17)
  br label %29

19:                                               ; preds = %5
  %20 = getelementptr i8, ptr %0, i64 24
  %.val17 = load ptr, ptr %20, align 8
  %21 = getelementptr i8, ptr %.val17, i64 4
  %.val26 = load i32, ptr %21, align 4
  %22 = and i32 %.val21, 16
  %.not14 = icmp eq i32 %22, 0
  %23 = select i1 %.not14, ptr @.str.6, ptr @.str.5
  %24 = getelementptr i8, ptr %0, i64 32
  %.val20 = load ptr, ptr %24, align 8
  %25 = getelementptr i8, ptr %.val20, i64 4
  %.val27 = load i32, ptr %25, align 4
  %26 = and i32 %.val21, 32
  %.not15 = icmp eq i32 %26, 0
  %27 = select i1 %.not15, ptr @.str.6, ptr @.str.5
  %28 = tail call i32 (ptr, ...) @printf(ptr noundef nonnull dereferenceable(1) @.str.7, i32 noundef %.val26, ptr noundef nonnull %23, i32 noundef %.val27, ptr noundef nonnull %27)
  br label %29

29:                                               ; preds = %11, %19, %13, %9
  %30 = getelementptr inbounds nuw i8, ptr %0, i64 20
  %31 = load i32, ptr %30, align 4
  %32 = tail call i32 (ptr, ...) @printf(ptr noundef nonnull dereferenceable(1) @.str.8, i32 noundef %31)
  %putchar = tail call i32 @putchar(i32 10)
  br label %33

33:                                               ; preds = %29, %3
  ret void
}